target datalayout = "e-m:e-p270:32:32-p271:32:32-p272:64:64-i64:64-i128:128-f80:128-n8:16:32:64-S128"
target triple = "x86_64-pc-linux-gnu"

%struct.nghttp2_settings_entry = type { i32, i32 }

; Function Attrs: nounwind uwtable
define hidden void @nghttp2_frame_unpack_settings_entry(ptr noundef %0, ptr noundef %1) #0 {
  %3 = alloca ptr, align 8
  %4 = alloca ptr, align 8
  store ptr %0, ptr %3, align 8, !tbaa !8
  store ptr %1, ptr %4, align 8, !tbaa !3
  %5 = load ptr, ptr %4, align 8, !tbaa !3
  %6 = getelementptr inbounds i8, ptr %5, i64 0
  %7 = call zeroext i16 @nghttp2_get_uint16(ptr noundef %6)
  %8 = zext i16 %7 to i32
  %9 = load ptr, ptr %3, align 8, !tbaa !8
  %10 = getelementptr inbounds nuw %struct.nghttp2_settings_entry, ptr %9, i32 0, i32 0
  store i32 %8, ptr %10, align 4, !tbaa !88
  %11 = load ptr, ptr %4, align 8, !tbaa !3
  %12 = getelementptr inbounds i8, ptr %11, i64 2
  %13 = call i32 @nghttp2_get_uint32(ptr noundef %12)
  %14 = load ptr, ptr %3, align 8, !tbaa !8
  %15 = getelementptr inbounds nuw %struct.nghttp2_settings_entry, ptr %14, i32 0, i32 1
  store i32 %13, ptr %15, align 4, !tbaa !90
  ret void
}