; Function Attrs: nounwind uwtable
define hidden void @nghttp2_frame_unpack_settings_entry(ptr noundef writeonly captures(none) initializes((0, 8)) %0, ptr noundef %1) local_unnamed_addr #0 {
  %3 = tail call zeroext i16 @nghttp2_get_uint16(ptr noundef %1) #18
  %4 = zext i16 %3 to i32
  store i32 %4, ptr %0, align 4, !tbaa !81
  %5 = getelementptr inbounds nuw i8, ptr %1, i64 2
  %6 = tail call i32 @nghttp2_get_uint32(ptr noundef nonnull %5) #18
  %7 = getelementptr inbounds nuw i8, ptr %0, i64 4
  store i32 %6, ptr %7, align 4, !tbaa !83
  ret void
}